; Function Attrs: mustprogress uwtable
define hidden void @_ZN4cvc58internal6theory5arith6linear7CutInfo17setReconstructionERKNS3_11DenseVectorE(ptr noundef nonnull align 8 captures(none) dereferenceable(88) %0, ptr noundef nonnull align 8 dereferenceable(104) %1) local_unnamed_addr #13 align 2 personality ptr @__gxx_personality_v0 {
  %3 = tail call noalias noundef nonnull dereferenceable(104) ptr @_Znwm(i64 noundef 104) #29
  invoke void @_ZN4cvc58internal8DenseMapINS0_8RationalEEC2ERKS3_(ptr noundef nonnull align 8 dereferenceable(104) %3, ptr noundef nonnull align 8 dereferenceable(104) %1)
          to label %.noexc unwind label %17

.noexc:                                           ; preds = %2
  %4 = getelementptr inbounds nuw i8, ptr %3, i64 72
  %5 = getelementptr inbounds nuw i8, ptr %1, i64 72
  invoke void @__gmpz_init_set(ptr noundef nonnull align 8 dereferenceable(32) %4, ptr noundef nonnull align 8 dereferenceable(32) %5)
          to label %.noexc.i unwind label %13

.noexc.i:                                         ; preds = %.noexc
  %6 = getelementptr inbounds nuw i8, ptr %3, i64 88
  %7 = getelementptr inbounds nuw i8, ptr %1, i64 88
  invoke void @__gmpz_init_set(ptr noundef nonnull %6, ptr noundef nonnull %7)
          to label %.noexc4.i unwind label %13

.noexc4.i:                                        ; preds = %.noexc.i
  invoke void @__gmpq_canonicalize(ptr noundef nonnull align 8 dereferenceable(32) %4)
          to label %_ZN4cvc58internal6theory5arith6linear11DenseVectorC2ERKS4_.exit unwind label %8

8:                                                ; preds = %.noexc4.i
  %9 = landingpad { ptr, i32 }
          cleanup
  invoke void @__gmpq_clear(ptr noundef nonnull align 8 dereferenceable(32) %4)
          to label %.body.i unwind label %10

10:                                               ; preds = %8
  %11 = landingpad { ptr, i32 }
          catch ptr null
  %12 = extractvalue { ptr, i32 } %11, 0
  tail call void @__clang_call_terminate(ptr %12) #28
  unreachable

13:                                               ; preds = %.noexc.i, %.noexc
  %14 = landingpad { ptr, i32 }
          cleanup
  br label %.body.i

.body.i:                                          ; preds = %13, %8
  %eh.lpad-body.i = phi { ptr, i32 } [ %14, %13 ], [ %9, %8 ]
  tail call void @_ZN4cvc58internal8DenseMapINS0_8RationalEED2Ev(ptr noundef nonnull align 8 dereferenceable(104) %3) #27
  br label %.body

_ZN4cvc58internal6theory5arith6linear11DenseVectorC2ERKS4_.exit: ; preds = %.noexc4.i
  %15 = getelementptr inbounds nuw i8, ptr %0, i64 72
  %16 = load ptr, ptr %15, align 8, !tbaa !93
  store ptr %3, ptr %15, align 8, !tbaa !93
  %.not.i.i = icmp eq ptr %16, null
  br i1 %.not.i.i, label %_ZNSt10unique_ptrIN4cvc58internal6theory5arith6linear11DenseVectorESt14default_deleteIS5_EE5resetEPS5_.exit, label %_ZNKSt14default_deleteIN4cvc58internal6theory5arith6linear11DenseVectorEEclEPS5_.exit.i.i

_ZNKSt14default_deleteIN4cvc58internal6theory5arith6linear11DenseVectorEEclEPS5_.exit.i.i: ; preds = %_ZN4cvc58internal6theory5arith6linear11DenseVectorC2ERKS4_.exit
  tail call void @_ZN4cvc58internal6theory5arith6linear11DenseVectorD2Ev(ptr noundef nonnull align 8 dereferenceable(104) %16) #27
  tail call void @_ZdlPvm(ptr noundef nonnull %16, i64 noundef 104) #26
  br label %_ZNSt10unique_ptrIN4cvc58internal6theory5arith6linear11DenseVectorESt14default_deleteIS5_EE5resetEPS5_.exit

_ZNSt10unique_ptrIN4cvc58internal6theory5arith6linear11DenseVectorESt14default_deleteIS5_EE5resetEPS5_.exit: ; preds = %_ZN4cvc58internal6theory5arith6linear11DenseVectorC2ERKS4_.exit, %_ZNKSt14default_deleteIN4cvc58internal6theory5arith6linear11DenseVectorEEclEPS5_.exit.i.i
  ret void

17:                                               ; preds = %2
  %18 = landingpad { ptr, i32 }
          cleanup
  br label %.body

.body:                                            ; preds = %.body.i, %17
  %eh.lpad-body = phi { ptr, i32 } [ %18, %17 ], [ %eh.lpad-body.i, %.body.i ]
  tail call void @_ZdlPvm(ptr noundef nonnull %3, i64 noundef 104) #26
  resume { ptr, i32 } %eh.lpad-body
}